; Function Attrs: nounwind uwtable
define void @dt_control_log_busy_leave() local_unnamed_addr #0 {
  %1 = load ptr, ptr getelementptr inbounds nuw (i8, ptr @darktable, i64 88), align 8, !tbaa !107
  %2 = getelementptr inbounds nuw i8, ptr %1, i64 8960
  %3 = tail call i32 @pthread_mutex_lock(ptr noundef nonnull %2) #13
  %4 = getelementptr inbounds nuw i8, ptr %1, i64 8956
  %5 = load i32, ptr %4, align 4, !tbaa !97
  %6 = add nsw i32 %5, -1
  store i32 %6, ptr %4, align 4, !tbaa !97
  %7 = tail call i32 @pthread_mutex_unlock(ptr noundef nonnull %2) #13
  %8 = load i32, ptr getelementptr inbounds nuw (i8, ptr @darktable, i64 3128), align 8, !tbaa !147
  %9 = and i32 %8, 1
  %10 = icmp ne i32 %9, 0
  %11 = load i32, ptr getelementptr inbounds nuw (i8, ptr @darktable, i64 3144), align 8
  %12 = icmp ne i32 %11, 0
  %or.cond.i = select i1 %10, i1 %12, i1 false
  br i1 %or.cond.i, label %13, label %dt_control_queue_redraw_center.exit

13:                                               ; preds = %0
  %14 = load i32, ptr getelementptr inbounds nuw (i8, ptr @darktable, i64 8), align 8, !tbaa !115
  %15 = and i32 %14, 1048576
  %.not.i = icmp eq i32 %15, 0
  br i1 %.not.i, label %dt_control_queue_redraw_center.exit, label %16

16:                                               ; preds = %13
  tail call void (ptr, ...) @dt_print_ext(ptr noundef nonnull @.str.39, ptr noundef nonnull @.str.42, ptr noundef nonnull @.str.41, i32 noundef 764, ptr noundef nonnull @__FUNCTION__.dt_control_queue_redraw_center) #13
  br label %dt_control_queue_redraw_center.exit

dt_control_queue_redraw_center.exit:              ; preds = %0, %13, %16
  %17 = load ptr, ptr getelementptr inbounds nuw (i8, ptr @darktable, i64 96), align 8, !tbaa !148
  tail call void (ptr, i32, ...) @dt_control_signal_raise(ptr noundef %17, i32 noundef 3) #13
  ret void
}